ccopy_reg
_reconstructor
p0
(cgoogle.oauth2.credentials
Credentials
p1
c__builtin__
object
p2
Ntp3
Rp4
(dp5
S'_scopes'
p6
(lp7
S'https://www.googleapis.com/auth/spreadsheets.readonly'
p8
asS'_quota_project_id'
p9
NsS'_token_uri'
p10
Vhttps://oauth2.googleapis.com/token
p11
sS'_granted_scopes'
p12
NsS'_default_scopes'
p13
NsS'expiry'
p14
cdatetime
datetime
p15
(S'\x07\xe9\x03\x0c\x11$\x10\x05\x8b\x8a'
p16
tp17
Rp18
sS'_enable_reauth_refresh'
p19
I00
sS'_refresh_token'
p20
V1//0gasj1T_Ay093CgYIARAAGBASNwF-L9IrfPBy7wddLv_IWvFnNVFjlWHnzpXZtJVJtdaiMHiR0zuI110IiofYqhqkByamBqC7tM8
p21
sS'token'
p22
Vya29.a0AeXRPp6rF4W_Ghwij9STQHq27Ly_d6LGvip6Y0rMUqiFAoP8Uer-qMO2dQRtBdlLJb406Ss1_SZDD22rc_E-YrT0pDbfV7gEb9iE5r1sShYwVcVkSoRlE7SUBharS6cGw_gyVm_DnREuVkqfFhqJjOykMKGiotcllv_3SRbZaCgYKAe4SARMSFQHGX2MiV-Ds9C4C8mw4NWyZfwbH9Q0175
p23
sS'_client_secret'
p24
VGOCSPX-s6G0kafqMCEM3O-7TtkBtRSt-ROd
p25
sS'_client_id'
p26
V484419336456-7g7u3k0l3lqq6cq80lihbotju0g3l4iv.apps.googleusercontent.com
p27
sS'_id_token'
p28
NsS'_rapt_token'
p29
Nsb.